
_INTERRUPTION_HIGH:

;unit05_01_blinkInterruption.c,92 :: 		void INTERRUPTION_HIGH() iv 0x0008 ics ICS_AUTO
;unit05_01_blinkInterruption.c,95 :: 		if(INTCON.TMR0IF == 1)
	BTFSS       INTCON+0, 2 
	GOTO        L_INTERRUPTION_HIGH0
;unit05_01_blinkInterruption.c,97 :: 		PORTD.RD0 = ~LATD.RD0;
	BTFSC       LATD+0, 0 
	GOTO        L__INTERRUPTION_HIGH6
	BSF         PORTD+0, 0 
	GOTO        L__INTERRUPTION_HIGH7
L__INTERRUPTION_HIGH6:
	BCF         PORTD+0, 0 
L__INTERRUPTION_HIGH7:
;unit05_01_blinkInterruption.c,100 :: 		TMR0H = 0XCF;
	MOVLW       207
	MOVWF       TMR0H+0 
;unit05_01_blinkInterruption.c,101 :: 		TMR0L = 0X2C;
	MOVLW       44
	MOVWF       TMR0L+0 
;unit05_01_blinkInterruption.c,103 :: 		INTCON.TMR0IF = 0;              // Clear flag & reset interruption cycle
	BCF         INTCON+0, 2 
;unit05_01_blinkInterruption.c,105 :: 		}
L_INTERRUPTION_HIGH0:
;unit05_01_blinkInterruption.c,110 :: 		}
L_end_INTERRUPTION_HIGH:
L__INTERRUPTION_HIGH5:
	RETFIE      1
; end of _INTERRUPTION_HIGH

_configMCU:

;unit05_01_blinkInterruption.c,111 :: 		void configMCU()                   // Timer0 Port & Directions
;unit05_01_blinkInterruption.c,116 :: 		ADCON1 |= 0X0F;                    // Analog pinouts
	MOVLW       15
	IORWF       ADCON1+0, 1 
;unit05_01_blinkInterruption.c,119 :: 		TRISD = 0;
	CLRF        TRISD+0 
;unit05_01_blinkInterruption.c,120 :: 		PORTD = 0;                         // LEDs' control pins
	CLRF        PORTD+0 
;unit05_01_blinkInterruption.c,121 :: 		}
L_end_configMCU:
	RETURN      0
; end of _configMCU

_configTMR0:

;unit05_01_blinkInterruption.c,122 :: 		void configTMR0()                    // TIMER0 em 200us
;unit05_01_blinkInterruption.c,124 :: 		T0CON = 0B00000100;               // Timer OFF, Mod 16-bits, Mode Timer, Prescale 1:32
	MOVLW       4
	MOVWF       T0CON+0 
;unit05_01_blinkInterruption.c,125 :: 		TMR0H = 0XCF;
	MOVLW       207
	MOVWF       TMR0H+0 
;unit05_01_blinkInterruption.c,126 :: 		TMR0L = 0X2C;
	MOVLW       44
	MOVWF       TMR0L+0 
;unit05_01_blinkInterruption.c,128 :: 		INTCON.TMR0IF = 0;                // Clear Flag
	BCF         INTCON+0, 2 
;unit05_01_blinkInterruption.c,129 :: 		T0CON.TMR0ON = 1;                 // Timer0 on!
	BSF         T0CON+0, 7 
;unit05_01_blinkInterruption.c,130 :: 		}
L_end_configTMR0:
	RETURN      0
; end of _configTMR0

_configGlobalInterruption:

;unit05_01_blinkInterruption.c,131 :: 		void configGlobalInterruption()     // Interruptions's master keys
;unit05_01_blinkInterruption.c,133 :: 		INTCON.GIEH = 1;                  // High priority enabled
	BSF         INTCON+0, 7 
;unit05_01_blinkInterruption.c,134 :: 		INTCON.GIEL = 1;                  // Low prioritY enabled
	BSF         INTCON+0, 6 
;unit05_01_blinkInterruption.c,135 :: 		RCON.IPEN =   1;                  // Compatibility family 16F (just one level)
	BSF         RCON+0, 7 
;unit05_01_blinkInterruption.c,138 :: 		}
L_end_configGlobalInterruption:
	RETURN      0
; end of _configGlobalInterruption

_configIndividualVctTMR0:

;unit05_01_blinkInterruption.c,139 :: 		void configIndividualVctTMR0()
;unit05_01_blinkInterruption.c,142 :: 		INTCON.TMR0IF  = 0;               // Overflow flag; please init zero
	BCF         INTCON+0, 2 
;unit05_01_blinkInterruption.c,143 :: 		INTCON2.TMR0IP = 1;               // Interruption priority vector: HIGH
	BSF         INTCON2+0, 2 
;unit05_01_blinkInterruption.c,144 :: 		INTCON.TMR0IE  = 1;               // TIMER0's interruption enabled
	BSF         INTCON+0, 5 
;unit05_01_blinkInterruption.c,145 :: 		}
L_end_configIndividualVctTMR0:
	RETURN      0
; end of _configIndividualVctTMR0

_main:

;unit05_01_blinkInterruption.c,146 :: 		void main() {
;unit05_01_blinkInterruption.c,147 :: 		configMCU();                      // configure CHIP
	CALL        _configMCU+0, 0
;unit05_01_blinkInterruption.c,148 :: 		configTMR0();                     // configure TMR0 master ints keys
	CALL        _configTMR0+0, 0
;unit05_01_blinkInterruption.c,149 :: 		configGlobalInterruption();       // Configure globals ints
	CALL        _configGlobalInterruption+0, 0
;unit05_01_blinkInterruption.c,150 :: 		configIndividualVctTMR0();        // configure TMR0 individual int vcts
	CALL        _configIndividualVctTMR0+0, 0
;unit05_01_blinkInterruption.c,154 :: 		while(TRUE)
L_main1:
;unit05_01_blinkInterruption.c,156 :: 		PORTD.RD6 = ~LATD.RD6;
	BTFSC       LATD+0, 6 
	GOTO        L__main13
	BSF         PORTD+0, 6 
	GOTO        L__main14
L__main13:
	BCF         PORTD+0, 6 
L__main14:
;unit05_01_blinkInterruption.c,157 :: 		Delay_ms(1000);             // Killing processor here!
	MOVLW       11
	MOVWF       R11, 0
	MOVLW       38
	MOVWF       R12, 0
	MOVLW       93
	MOVWF       R13, 0
L_main3:
	DECFSZ      R13, 1, 1
	BRA         L_main3
	DECFSZ      R12, 1, 1
	BRA         L_main3
	DECFSZ      R11, 1, 1
	BRA         L_main3
	NOP
	NOP
;unit05_01_blinkInterruption.c,159 :: 		}
	GOTO        L_main1
;unit05_01_blinkInterruption.c,160 :: 		}
L_end_main:
	GOTO        $+0
; end of _main
